target datalayout = "e-m:e-p270:32:32-p271:32:32-p272:64:64-i64:64-i128:128-f80:128-n8:16:32:64-S128"
target triple = "x86_64-pc-linux-gnu"

%struct.H5O_drvinfo_t = type { %struct.H5C_cache_entry_t, [9 x i8], i64, ptr }
%struct.H5C_cache_entry_t = type { ptr, i64, i64, ptr, i8, ptr, i8, i8, i8, i8, i32, i8, i8, i8, i8, i8, i32, ptr, i32, i32, i32, i32, i32, i8, i8, ptr, ptr, ptr, ptr, ptr, ptr, i8, i32, i8, i64, ptr, i64, i64, i32, i8, i32, i32, i8, ptr, ptr, ptr }

@H5O_init_g = external global i8, align 1
@H5_libterm_g = external global i8, align 1
@.str.1 = private unnamed_addr constant [104 x i8] c"generated/home/dtcxzyw/WorkSpace/Projects/compilers/llvm-opt-benchmark/bench/hdf5/hdf5/src/H5Odrvinfo.c\00", align 1
@H5E_RESOURCE_g = external global i64, align 8
@H5E_NOSPACE_g = external global i64, align 8
@__func__.H5O__drvinfo_copy = private unnamed_addr constant [18 x i8] c"H5O__drvinfo_copy\00", align 1
@.str.7 = private unnamed_addr constant [58 x i8] c"memory allocation failed for shared message table message\00", align 1
@.str.8 = private unnamed_addr constant [25 x i8] c"memory allocation failed\00", align 1

; Function Attrs: nounwind uwtable
define internal ptr @H5O__drvinfo_copy(ptr noundef %0, ptr noundef %1) #0 {
  %3 = alloca ptr, align 8
  %4 = alloca ptr, align 8
  %5 = alloca ptr, align 8
  %6 = alloca ptr, align 8
  %7 = alloca ptr, align 8
  %8 = alloca i8, align 1
  store ptr %0, ptr %3, align 8, !tbaa !20
  store ptr %1, ptr %4, align 8, !tbaa !20
  call void @llvm.lifetime.start.p0(i64 8, ptr %5) #8
  %9 = load ptr, ptr %3, align 8, !tbaa !20
  store ptr %9, ptr %5, align 8, !tbaa !18
  call void @llvm.lifetime.start.p0(i64 8, ptr %6) #8
  %10 = load ptr, ptr %4, align 8, !tbaa !20
  store ptr %10, ptr %6, align 8, !tbaa !18
  call void @llvm.lifetime.start.p0(i64 8, ptr %7) #8
  store ptr null, ptr %7, align 8, !tbaa !20
  call void @llvm.lifetime.start.p0(i64 1, ptr %8) #8
  store i8 0, ptr %8, align 1, !tbaa !21
  %11 = load i8, ptr @H5O_init_g, align 1, !tbaa !21, !range !23, !noundef !24
  %12 = trunc i8 %11 to i1
  br i1 %12, label %17, label %13

13:                                               ; preds = %2
  %14 = load i8, ptr @H5_libterm_g, align 1, !tbaa !21, !range !23, !noundef !24
  %15 = trunc i8 %14 to i1
  %16 = xor i1 %15, true
  br label %17

17:                                               ; preds = %13, %2
  %18 = phi i1 [ true, %2 ], [ %16, %13 ]
  %19 = xor i1 %18, true
  %20 = xor i1 %19, true
  %21 = zext i1 %20 to i32
  %22 = sext i32 %21 to i64
  %23 = call i64 @llvm.expect.i64(i64 %22, i64 1)
  %24 = icmp ne i64 %23, 0
  br i1 %24, label %25, label %98

25:                                               ; preds = %17
  %26 = load ptr, ptr %6, align 8, !tbaa !18
  %27 = icmp ne ptr %26, null
  br i1 %27, label %50, label %28

28:                                               ; preds = %25
  %29 = call noalias ptr @malloc(i64 noundef 280) #10
  store ptr %29, ptr %6, align 8, !tbaa !18
  %30 = icmp eq ptr null, %29
  br i1 %30, label %31, label %50

31:                                               ; preds = %28
  br label %32

32:                                               ; preds = %31
  br label %33

33:                                               ; preds = %32
  br label %34

34:                                               ; preds = %33
  %35 = load i64, ptr @H5E_RESOURCE_g, align 8, !tbaa !14
  %36 = load i64, ptr @H5E_NOSPACE_g, align 8, !tbaa !14
  %37 = call i32 (ptr, ptr, i32, i64, i64, ptr, ...) @H5E_printf_stack(ptr noundef @.str.1, ptr noundef @__func__.H5O__drvinfo_copy, i32 noundef 187, i64 noundef %35, i64 noundef %36, ptr noundef @.str.7)
  br label %38

38:                                               ; preds = %34
  br label %39

39:                                               ; preds = %38
  store i8 1, ptr %8, align 1, !tbaa !21
  %40 = load i8, ptr %8, align 1, !tbaa !21, !range !23, !noundef !24
  %41 = trunc i8 %40 to i1
  %42 = zext i1 %41 to i8
  store i8 %42, ptr %8, align 1, !tbaa !21
  br label %43

43:                                               ; preds = %39
  br label %44

44:                                               ; preds = %43
  br label %45

45:                                               ; preds = %44
  store ptr null, ptr %7, align 8, !tbaa !20
  br label %97

46:                                               ; No predecessors!
  br label %47

47:                                               ; preds = %46
  br label %48

48:                                               ; preds = %47
  br label %49

49:                                               ; preds = %48
  br label %50

50:                                               ; preds = %49, %28, %25
  %51 = load ptr, ptr %6, align 8, !tbaa !18
  %52 = load ptr, ptr %5, align 8, !tbaa !18
  call void @llvm.memcpy.p0.p0.i64(ptr align 8 %51, ptr align 8 %52, i64 280, i1 false), !tbaa.struct !36
  %53 = load ptr, ptr %5, align 8, !tbaa !18
  %54 = getelementptr inbounds nuw %struct.H5O_drvinfo_t, ptr %53, i32 0, i32 2
  %55 = load i64, ptr %54, align 8, !tbaa !26
  %56 = call noalias ptr @malloc(i64 noundef %55) #10
  %57 = load ptr, ptr %6, align 8, !tbaa !18
  %58 = getelementptr inbounds nuw %struct.H5O_drvinfo_t, ptr %57, i32 0, i32 3
  store ptr %56, ptr %58, align 8, !tbaa !35
  %59 = icmp eq ptr null, %56
  br i1 %59, label %60, label %86

60:                                               ; preds = %50
  %61 = load ptr, ptr %6, align 8, !tbaa !18
  %62 = load ptr, ptr %4, align 8, !tbaa !20
  %63 = icmp ne ptr %61, %62
  br i1 %63, label %64, label %67

64:                                               ; preds = %60
  %65 = load ptr, ptr %6, align 8, !tbaa !18
  %66 = call ptr @H5MM_xfree(ptr noundef %65)
  store ptr %66, ptr %6, align 8, !tbaa !18
  br label %67

67:                                               ; preds = %64, %60
  br label %68

68:                                               ; preds = %67
  br label %69

69:                                               ; preds = %68
  br label %70

70:                                               ; preds = %69
  %71 = load i64, ptr @H5E_RESOURCE_g, align 8, !tbaa !14
  %72 = load i64, ptr @H5E_NOSPACE_g, align 8, !tbaa !14
  %73 = call i32 (ptr, ptr, i32, i64, i64, ptr, ...) @H5E_printf_stack(ptr noundef @.str.1, ptr noundef @__func__.H5O__drvinfo_copy, i32 noundef 196, i64 noundef %71, i64 noundef %72, ptr noundef @.str.8)
  br label %74

74:                                               ; preds = %70
  br label %75

75:                                               ; preds = %74
  store i8 1, ptr %8, align 1, !tbaa !21
  %76 = load i8, ptr %8, align 1, !tbaa !21, !range !23, !noundef !24
  %77 = trunc i8 %76 to i1
  %78 = zext i1 %77 to i8
  store i8 %78, ptr %8, align 1, !tbaa !21
  br label %79

79:                                               ; preds = %75
  br label %80

80:                                               ; preds = %79
  br label %81

81:                                               ; preds = %80
  store ptr null, ptr %7, align 8, !tbaa !20
  br label %97

82:                                               ; No predecessors!
  br label %83

83:                                               ; preds = %82
  br label %84

84:                                               ; preds = %83
  br label %85

85:                                               ; preds = %84
  br label %86

86:                                               ; preds = %85, %50
  %87 = load ptr, ptr %6, align 8, !tbaa !18
  %88 = getelementptr inbounds nuw %struct.H5O_drvinfo_t, ptr %87, i32 0, i32 3
  %89 = load ptr, ptr %88, align 8, !tbaa !35
  %90 = load ptr, ptr %5, align 8, !tbaa !18
  %91 = getelementptr inbounds nuw %struct.H5O_drvinfo_t, ptr %90, i32 0, i32 3
  %92 = load ptr, ptr %91, align 8, !tbaa !35
  %93 = load ptr, ptr %5, align 8, !tbaa !18
  %94 = getelementptr inbounds nuw %struct.H5O_drvinfo_t, ptr %93, i32 0, i32 2
  %95 = load i64, ptr %94, align 8, !tbaa !26
  call void @llvm.memcpy.p0.p0.i64(ptr align 1 %89, ptr align 1 %92, i64 %95, i1 false)
  %96 = load ptr, ptr %6, align 8, !tbaa !18
  store ptr %96, ptr %7, align 8, !tbaa !20
  br label %97

97:                                               ; preds = %86, %81, %45
  br label %98

98:                                               ; preds = %97, %17
  %99 = load ptr, ptr %7, align 8, !tbaa !20
  call void @llvm.lifetime.end.p0(i64 1, ptr %8) #8
  call void @llvm.lifetime.end.p0(i64 8, ptr %7) #8
  call void @llvm.lifetime.end.p0(i64 8, ptr %6) #8
  call void @llvm.lifetime.end.p0(i64 8, ptr %5) #8
  ret ptr %99
}