; Function Attrs: nounwind uwtable
define internal noundef ptr @H5O__drvinfo_copy(ptr noundef readonly captures(none) %0, ptr noundef %1) #0 {
  %3 = load i8, ptr @H5O_init_g, align 1, !tbaa !3, !range !7, !noundef !8
  %4 = trunc nuw i8 %3 to i1
  %5 = load i8, ptr @H5_libterm_g, align 1, !range !7
  %6 = trunc nuw i8 %5 to i1
  %7 = xor i1 %6, true
  %8 = select i1 %4, i1 true, i1 %7
  br i1 %8, label %9, label %33, !prof !9

9:                                                ; preds = %2
  %.not = icmp eq ptr %1, null
  br i1 %.not, label %10, label %17

10:                                               ; preds = %9
  %11 = tail call noalias dereferenceable_or_null(280) ptr @malloc(i64 noundef 280) #11
  %12 = icmp eq ptr %11, null
  br i1 %12, label %13, label %17

13:                                               ; preds = %10
  %14 = load i64, ptr @H5E_RESOURCE_g, align 8, !tbaa !10
  %15 = load i64, ptr @H5E_NOSPACE_g, align 8, !tbaa !10
  %16 = tail call i32 (ptr, ptr, i32, i64, i64, ptr, ...) @H5E_printf_stack(ptr noundef nonnull @.str.1, ptr noundef nonnull @__func__.H5O__drvinfo_copy, i32 noundef 187, i64 noundef %14, i64 noundef %15, ptr noundef nonnull @.str.7) #9
  br label %33

17:                                               ; preds = %10, %9
  %.016 = phi ptr [ %1, %9 ], [ %11, %10 ]
  tail call void @llvm.memcpy.p0.p0.i64(ptr noundef nonnull align 8 dereferenceable(280) %.016, ptr noundef nonnull align 8 dereferenceable(280) %0, i64 280, i1 false), !tbaa.struct !26
  %18 = getelementptr inbounds nuw i8, ptr %0, i64 264
  %19 = load i64, ptr %18, align 8, !tbaa !13
  %20 = tail call noalias ptr @malloc(i64 noundef %19) #11
  %21 = getelementptr inbounds nuw i8, ptr %.016, i64 272
  store ptr %20, ptr %21, align 8, !tbaa !25
  %22 = icmp eq ptr %20, null
  br i1 %22, label %23, label %30

23:                                               ; preds = %17
  %.not20 = icmp eq ptr %.016, %1
  br i1 %.not20, label %26, label %24

24:                                               ; preds = %23
  %25 = tail call ptr @H5MM_xfree(ptr noundef nonnull %.016) #9
  br label %26

26:                                               ; preds = %23, %24
  %27 = load i64, ptr @H5E_RESOURCE_g, align 8, !tbaa !10
  %28 = load i64, ptr @H5E_NOSPACE_g, align 8, !tbaa !10
  %29 = tail call i32 (ptr, ptr, i32, i64, i64, ptr, ...) @H5E_printf_stack(ptr noundef nonnull @.str.1, ptr noundef nonnull @__func__.H5O__drvinfo_copy, i32 noundef 196, i64 noundef %27, i64 noundef %28, ptr noundef nonnull @.str.8) #9
  br label %33

30:                                               ; preds = %17
  %31 = getelementptr inbounds nuw i8, ptr %0, i64 272
  %32 = load ptr, ptr %31, align 8, !tbaa !25
  tail call void @llvm.memcpy.p0.p0.i64(ptr nonnull align 1 %20, ptr align 1 %32, i64 %19, i1 false)
  br label %33

33:                                               ; preds = %13, %26, %30, %2
  %.0 = phi ptr [ null, %26 ], [ %.016, %30 ], [ null, %13 ], [ null, %2 ]
  ret ptr %.0
}